; ModuleID = 'source-C-CXX/24/773.cpp'
source_filename = "source-C-CXX/24/773.cpp"
target datalayout = "e-m:e-p270:32:32-p271:32:32-p272:64:64-i64:64-f80:128-n8:16:32:64-S128"
target triple = "x86_64-pc-linux-gnu"

%"class.std::ios_base::Init" = type { i8 }
%"class.std::basic_istream" = type { i32 (...)**, i64, %"class.std::basic_ios" }
%"class.std::basic_ios" = type { %"class.std::ios_base", %"class.std::basic_ostream"*, i8, i8, %"class.std::basic_streambuf"*, %"class.std::ctype"*, %"class.std::num_put"*, %"class.std::num_get"* }
%"class.std::ios_base" = type { i32 (...)**, i64, i64, i32, i32, i32, %"struct.std::ios_base::_Callback_list"*, %"struct.std::ios_base::_Words", [8 x %"struct.std::ios_base::_Words"], i32, %"struct.std::ios_base::_Words"*, %"class.std::locale" }
%"struct.std::ios_base::_Callback_list" = type { %"struct.std::ios_base::_Callback_list"*, void (i32, %"class.std::ios_base"*, i32)*, i32, i32 }
%"struct.std::ios_base::_Words" = type { i8*, i64 }
%"class.std::locale" = type { %"class.std::locale::_Impl"* }
%"class.std::locale::_Impl" = type { i32, %"class.std::locale::facet"**, i64, %"class.std::locale::facet"**, i8** }
%"class.std::locale::facet" = type <{ i32 (...)**, i32, [4 x i8] }>
%"class.std::basic_ostream" = type { i32 (...)**, %"class.std::basic_ios" }
%"class.std::basic_streambuf" = type { i32 (...)**, i8*, i8*, i8*, i8*, i8*, i8*, %"class.std::locale" }
%"class.std::ctype" = type <{ %"class.std::locale::facet.base", [4 x i8], %struct.__locale_struct*, i8, [7 x i8], i32*, i32*, i16*, i8, [256 x i8], [256 x i8], i8, [6 x i8] }>
%"class.std::locale::facet.base" = type <{ i32 (...)**, i32 }>
%struct.__locale_struct = type { [13 x %struct.__locale_data*], i16*, i32*, i32*, [13 x i8*] }
%struct.__locale_data = type opaque
%"class.std::num_put" = type { %"class.std::locale::facet.base", [4 x i8] }
%"class.std::num_get" = type { %"class.std::locale::facet.base", [4 x i8] }

@_ZStL8__ioinit = internal global %"class.std::ios_base::Init" zeroinitializer, align 1
@__dso_handle = external hidden global i8
@_ZSt3cin = external global %"class.std::basic_istream", align 8
@_ZSt4cout = external global %"class.std::basic_ostream", align 8
@llvm.global_ctors = appending global [1 x { i32, void ()*, i8* }] [{ i32, void ()*, i8* } { i32 65535, void ()* @_GLOBAL__sub_I_773.cpp, i8* null }]

declare void @_ZNSt8ios_base4InitC1Ev(%"class.std::ios_base::Init"* nonnull align 1 dereferenceable(1)) unnamed_addr #0

; Function Attrs: nounwind
declare void @_ZNSt8ios_base4InitD1Ev(%"class.std::ios_base::Init"* nonnull align 1 dereferenceable(1)) unnamed_addr #1

; Function Attrs: nofree nounwind
declare i32 @__cxa_atexit(void (i8*)*, i8*, i8*) local_unnamed_addr #2

; Function Attrs: mustprogress norecurse sspstrong uwtable
define dso_local i32 @main(i32 %0, i8** nocapture readnone %1) local_unnamed_addr #3 {
  %3 = alloca i32, align 4
  %4 = alloca [1000 x i32], align 16
  %5 = bitcast i32* %3 to i8*
  call void @llvm.lifetime.start.p0i8(i64 4, i8* nonnull %5) #7
  %6 = bitcast [1000 x i32]* %4 to i8*
  call void @llvm.lifetime.start.p0i8(i64 4000, i8* nonnull %6) #7
  call void @llvm.memset.p0i8.i64(i8* noundef nonnull align 16 dereferenceable(4000) %6, i8 0, i64 4000, i1 false)
  %7 = getelementptr inbounds [1000 x i32], [1000 x i32]* %4, i64 0, i64 0
  store i32 1, i32* %7, align 16, !tbaa !5
  %8 = call nonnull align 8 dereferenceable(16) %"class.std::basic_istream"* @_ZNSirsERi(%"class.std::basic_istream"* nonnull align 8 dereferenceable(16) @_ZSt3cin, i32* nonnull align 4 dereferenceable(4) %3)
  %9 = load i32, i32* %3, align 4, !tbaa !5
  %10 = icmp sgt i32 %9, 0
  br i1 %10, label %16, label %11

11:                                               ; preds = %15, %2
  br label %48

12:                                               ; preds = %84
  %13 = add nsw i32 %17, -1
  %14 = icmp sgt i32 %17, 1
  br i1 %14, label %16, label %15, !llvm.loop !9

15:                                               ; preds = %12
  store i32 0, i32* %3, align 4, !tbaa !5
  br label %11

16:                                               ; preds = %2, %12
  %17 = phi i32 [ %13, %12 ], [ %9, %2 ]
  br label %18

18:                                               ; preds = %67, %16
  %19 = phi i64 [ 0, %16 ], [ %78, %67 ]
  %20 = getelementptr inbounds [1000 x i32], [1000 x i32]* %4, i64 0, i64 %19
  %21 = bitcast i32* %20 to <4 x i32>*
  %22 = load <4 x i32>, <4 x i32>* %21, align 16, !tbaa !5
  %23 = getelementptr inbounds i32, i32* %20, i64 4
  %24 = bitcast i32* %23 to <4 x i32>*
  %25 = load <4 x i32>, <4 x i32>* %24, align 16, !tbaa !5
  %26 = shl nsw <4 x i32> %22, <i32 1, i32 1, i32 1, i32 1>
  %27 = shl nsw <4 x i32> %25, <i32 1, i32 1, i32 1, i32 1>
  %28 = bitcast i32* %20 to <4 x i32>*
  store <4 x i32> %26, <4 x i32>* %28, align 16, !tbaa !5
  %29 = bitcast i32* %23 to <4 x i32>*
  store <4 x i32> %27, <4 x i32>* %29, align 16, !tbaa !5
  %30 = or i64 %19, 8
  %31 = icmp eq i64 %30, 1000
  br i1 %31, label %32, label %67, !llvm.loop !11

32:                                               ; preds = %18, %84
  %33 = phi i64 [ %47, %84 ], [ 0, %18 ]
  %34 = getelementptr inbounds [1000 x i32], [1000 x i32]* %4, i64 0, i64 %33
  %35 = load i32, i32* %34, align 8, !tbaa !5
  %36 = icmp sgt i32 %35, 9
  %37 = or i64 %33, 1
  br i1 %36, label %38, label %43

38:                                               ; preds = %32
  %39 = getelementptr inbounds [1000 x i32], [1000 x i32]* %4, i64 0, i64 %37
  %40 = load i32, i32* %39, align 4, !tbaa !5
  %41 = add nsw i32 %40, 1
  store i32 %41, i32* %39, align 4, !tbaa !5
  %42 = add nsw i32 %35, -10
  store i32 %42, i32* %34, align 8, !tbaa !5
  br label %43

43:                                               ; preds = %32, %38
  %44 = getelementptr inbounds [1000 x i32], [1000 x i32]* %4, i64 0, i64 %37
  %45 = load i32, i32* %44, align 4, !tbaa !5
  %46 = icmp sgt i32 %45, 9
  %47 = add nuw nsw i64 %33, 2
  br i1 %46, label %79, label %84

48:                                               ; preds = %11, %48
  %49 = phi i64 [ %53, %48 ], [ 999, %11 ]
  %50 = getelementptr inbounds [1000 x i32], [1000 x i32]* %4, i64 0, i64 %49
  %51 = load i32, i32* %50, align 4, !tbaa !5
  %52 = icmp eq i32 %51, 0
  %53 = add i64 %49, -1
  br i1 %52, label %48, label %54, !llvm.loop !13

54:                                               ; preds = %48
  %55 = trunc i64 %49 to i32
  %56 = icmp sgt i32 %55, -1
  br i1 %56, label %57, label %66

57:                                               ; preds = %54
  %58 = and i64 %49, 4294967295
  br label %59

59:                                               ; preds = %57, %59
  %60 = phi i64 [ %58, %57 ], [ %65, %59 ]
  %61 = getelementptr inbounds [1000 x i32], [1000 x i32]* %4, i64 0, i64 %60
  %62 = load i32, i32* %61, align 4, !tbaa !5
  %63 = call nonnull align 8 dereferenceable(8) %"class.std::basic_ostream"* @_ZNSolsEi(%"class.std::basic_ostream"* nonnull align 8 dereferenceable(8) @_ZSt4cout, i32 %62)
  %64 = icmp sgt i64 %60, 0
  %65 = add nsw i64 %60, -1
  br i1 %64, label %59, label %66, !llvm.loop !14

66:                                               ; preds = %59, %54
  call void @llvm.lifetime.end.p0i8(i64 4000, i8* nonnull %6) #7
  call void @llvm.lifetime.end.p0i8(i64 4, i8* nonnull %5) #7
  ret i32 0

67:                                               ; preds = %18
  %68 = getelementptr inbounds [1000 x i32], [1000 x i32]* %4, i64 0, i64 %30
  %69 = bitcast i32* %68 to <4 x i32>*
  %70 = load <4 x i32>, <4 x i32>* %69, align 16, !tbaa !5
  %71 = getelementptr inbounds i32, i32* %68, i64 4
  %72 = bitcast i32* %71 to <4 x i32>*
  %73 = load <4 x i32>, <4 x i32>* %72, align 16, !tbaa !5
  %74 = shl nsw <4 x i32> %70, <i32 1, i32 1, i32 1, i32 1>
  %75 = shl nsw <4 x i32> %73, <i32 1, i32 1, i32 1, i32 1>
  %76 = bitcast i32* %68 to <4 x i32>*
  store <4 x i32> %74, <4 x i32>* %76, align 16, !tbaa !5
  %77 = bitcast i32* %71 to <4 x i32>*
  store <4 x i32> %75, <4 x i32>* %77, align 16, !tbaa !5
  %78 = add nuw nsw i64 %19, 16
  br label %18

79:                                               ; preds = %43
  %80 = getelementptr inbounds [1000 x i32], [1000 x i32]* %4, i64 0, i64 %47
  %81 = load i32, i32* %80, align 8, !tbaa !5
  %82 = add nsw i32 %81, 1
  store i32 %82, i32* %80, align 8, !tbaa !5
  %83 = add nsw i32 %45, -10
  store i32 %83, i32* %44, align 4, !tbaa !5
  br label %84

84:                                               ; preds = %79, %43
  %85 = icmp eq i64 %47, 1000
  br i1 %85, label %12, label %32, !llvm.loop !15
}

; Function Attrs: argmemonly mustprogress nofree nosync nounwind willreturn
declare void @llvm.lifetime.start.p0i8(i64 immarg, i8* nocapture) #4

; Function Attrs: argmemonly mustprogress nofree nounwind willreturn writeonly
declare void @llvm.memset.p0i8.i64(i8* nocapture writeonly, i8, i64, i1 immarg) #5

declare nonnull align 8 dereferenceable(16) %"class.std::basic_istream"* @_ZNSirsERi(%"class.std::basic_istream"* nonnull align 8 dereferenceable(16), i32* nonnull align 4 dereferenceable(4)) local_unnamed_addr #0

declare nonnull align 8 dereferenceable(8) %"class.std::basic_ostream"* @_ZNSolsEi(%"class.std::basic_ostream"* nonnull align 8 dereferenceable(8), i32) local_unnamed_addr #0

; Function Attrs: argmemonly mustprogress nofree nosync nounwind willreturn
declare void @llvm.lifetime.end.p0i8(i64 immarg, i8* nocapture) #4

; Function Attrs: sspstrong uwtable
define internal void @_GLOBAL__sub_I_773.cpp() #6 section ".text.startup" {
  tail call void @_ZNSt8ios_base4InitC1Ev(%"class.std::ios_base::Init"* nonnull align 1 dereferenceable(1) @_ZStL8__ioinit)
  %1 = tail call i32 @__cxa_atexit(void (i8*)* bitcast (void (%"class.std::ios_base::Init"*)* @_ZNSt8ios_base4InitD1Ev to void (i8*)*), i8* getelementptr inbounds (%"class.std::ios_base::Init", %"class.std::ios_base::Init"* @_ZStL8__ioinit, i64 0, i32 0), i8* nonnull @__dso_handle) #7
  ret void
}


!llvm.module.flags = !{!0, !1, !2, !3}
!llvm.ident = !{!4}

!0 = !{i32 1, !"wchar_size", i32 4}
!1 = !{i32 7, !"PIC Level", i32 2}
!2 = !{i32 7, !"PIE Level", i32 2}
!3 = !{i32 7, !"uwtable", i32 1}
!4 = !{!"clang version 13.0.0"}
!5 = !{!6, !6, i64 0}
!6 = !{!"int", !7, i64 0}
!7 = !{!"omnipotent char", !8, i64 0}
!8 = !{!"Simple C++ TBAA"}
!9 = distinct !{!9, !10}
!10 = !{!"llvm.loop.mustprogress"}
!11 = distinct !{!11, !10, !12}
!12 = !{!"llvm.loop.isvectorized", i32 1}
!13 = distinct !{!13, !10}
!14 = distinct !{!14, !10}
!15 = distinct !{!15, !10}
